target datalayout = "e-m:e-p270:32:32-p271:32:32-p272:64:64-i64:64-i128:128-f80:128-n8:16:32:64-S128"
target triple = "x86_64-pc-linux-gnu"

%struct.oggvorbis_private = type { [3 x i32], [3 x ptr], ptr, i64, i32 }

; Function Attrs: nounwind uwtable
define internal i32 @fixup_vorbis_headers(ptr noundef %0, ptr noundef %1, ptr noundef %2) #0 {
  %4 = alloca i32, align 4
  %5 = alloca ptr, align 8
  %6 = alloca ptr, align 8
  %7 = alloca ptr, align 8
  %8 = alloca i32, align 4
  %9 = alloca i32, align 4
  %10 = alloca i32, align 4
  %11 = alloca i32, align 4
  %12 = alloca i32, align 4
  %13 = alloca ptr, align 8
  %14 = alloca i32, align 4
  store ptr %0, ptr %5, align 8, !tbaa !4
  store ptr %1, ptr %6, align 8, !tbaa !60
  store ptr %2, ptr %7, align 8, !tbaa !30
  call void @llvm.lifetime.start.p0(i64 4, ptr %8) #8
  call void @llvm.lifetime.start.p0(i64 4, ptr %9) #8
  call void @llvm.lifetime.start.p0(i64 4, ptr %10) #8
  call void @llvm.lifetime.start.p0(i64 4, ptr %11) #8
  call void @llvm.lifetime.start.p0(i64 4, ptr %12) #8
  call void @llvm.lifetime.start.p0(i64 8, ptr %13) #8
  %15 = load ptr, ptr %6, align 8, !tbaa !60
  %16 = getelementptr inbounds nuw %struct.oggvorbis_private, ptr %15, i32 0, i32 0
  %17 = getelementptr inbounds [3 x i32], ptr %16, i64 0, i64 0
  %18 = load i32, ptr %17, align 8, !tbaa !13
  %19 = load ptr, ptr %6, align 8, !tbaa !60
  %20 = getelementptr inbounds nuw %struct.oggvorbis_private, ptr %19, i32 0, i32 0
  %21 = getelementptr inbounds [3 x i32], ptr %20, i64 0, i64 1
  %22 = load i32, ptr %21, align 4, !tbaa !13
  %23 = add i32 %18, %22
  %24 = load ptr, ptr %6, align 8, !tbaa !60
  %25 = getelementptr inbounds nuw %struct.oggvorbis_private, ptr %24, i32 0, i32 0
  %26 = getelementptr inbounds [3 x i32], ptr %25, i64 0, i64 2
  %27 = load i32, ptr %26, align 8, !tbaa !13
  %28 = add i32 %23, %27
  store i32 %28, ptr %10, align 4, !tbaa !13
  %29 = load i32, ptr %10, align 4, !tbaa !13
  %30 = load i32, ptr %10, align 4, !tbaa !13
  %31 = sdiv i32 %30, 255
  %32 = add nsw i32 %29, %31
  %33 = add nsw i32 %32, 64
  store i32 %33, ptr %12, align 4, !tbaa !13
  %34 = load ptr, ptr %7, align 8, !tbaa !30
  %35 = load ptr, ptr %34, align 8, !tbaa !11
  %36 = icmp ne ptr %35, null
  br i1 %36, label %37, label %38

37:                                               ; preds = %3
  store i32 -1094995529, ptr %4, align 4
  store i32 1, ptr %14, align 4
  br label %123

38:                                               ; preds = %3
  %39 = load i32, ptr %12, align 4, !tbaa !13
  %40 = sext i32 %39 to i64
  %41 = call ptr @av_realloc(ptr noundef null, i64 noundef %40)
  %42 = load ptr, ptr %7, align 8, !tbaa !30
  store ptr %41, ptr %42, align 8, !tbaa !11
  store ptr %41, ptr %13, align 8, !tbaa !11
  %43 = load ptr, ptr %13, align 8, !tbaa !11
  %44 = icmp ne ptr %43, null
  br i1 %44, label %46, label %45

45:                                               ; preds = %38
  store i32 -12, ptr %4, align 4
  store i32 1, ptr %14, align 4
  br label %123

46:                                               ; preds = %38
  %47 = load ptr, ptr %7, align 8, !tbaa !30
  %48 = load ptr, ptr %47, align 8, !tbaa !11
  %49 = load i32, ptr %12, align 4, !tbaa !13
  %50 = sext i32 %49 to i64
  call void @llvm.memset.p0.i64(ptr align 1 %48, i8 0, i64 %50, i1 false)
  %51 = load ptr, ptr %13, align 8, !tbaa !11
  %52 = getelementptr inbounds i8, ptr %51, i64 0
  store i8 2, ptr %52, align 1, !tbaa !32
  store i32 1, ptr %9, align 4, !tbaa !13
  %53 = load ptr, ptr %13, align 8, !tbaa !11
  %54 = load i32, ptr %9, align 4, !tbaa !13
  %55 = sext i32 %54 to i64
  %56 = getelementptr inbounds i8, ptr %53, i64 %55
  %57 = load ptr, ptr %6, align 8, !tbaa !60
  %58 = getelementptr inbounds nuw %struct.oggvorbis_private, ptr %57, i32 0, i32 0
  %59 = getelementptr inbounds [3 x i32], ptr %58, i64 0, i64 0
  %60 = load i32, ptr %59, align 8, !tbaa !13
  %61 = call i32 @av_xiphlacing(ptr noundef %56, i32 noundef %60)
  %62 = load i32, ptr %9, align 4, !tbaa !13
  %63 = add i32 %62, %61
  store i32 %63, ptr %9, align 4, !tbaa !13
  %64 = load ptr, ptr %13, align 8, !tbaa !11
  %65 = load i32, ptr %9, align 4, !tbaa !13
  %66 = sext i32 %65 to i64
  %67 = getelementptr inbounds i8, ptr %64, i64 %66
  %68 = load ptr, ptr %6, align 8, !tbaa !60
  %69 = getelementptr inbounds nuw %struct.oggvorbis_private, ptr %68, i32 0, i32 0
  %70 = getelementptr inbounds [3 x i32], ptr %69, i64 0, i64 1
  %71 = load i32, ptr %70, align 4, !tbaa !13
  %72 = call i32 @av_xiphlacing(ptr noundef %67, i32 noundef %71)
  %73 = load i32, ptr %9, align 4, !tbaa !13
  %74 = add i32 %73, %72
  store i32 %74, ptr %9, align 4, !tbaa !13
  store i32 0, ptr %8, align 4, !tbaa !13
  br label %75

75:                                               ; preds = %109, %46
  %76 = load i32, ptr %8, align 4, !tbaa !13
  %77 = icmp slt i32 %76, 3
  br i1 %77, label %78, label %112

78:                                               ; preds = %75
  %79 = load ptr, ptr %13, align 8, !tbaa !11
  %80 = load i32, ptr %9, align 4, !tbaa !13
  %81 = sext i32 %80 to i64
  %82 = getelementptr inbounds i8, ptr %79, i64 %81
  %83 = load ptr, ptr %6, align 8, !tbaa !60
  %84 = getelementptr inbounds nuw %struct.oggvorbis_private, ptr %83, i32 0, i32 1
  %85 = load i32, ptr %8, align 4, !tbaa !13
  %86 = sext i32 %85 to i64
  %87 = getelementptr inbounds [3 x ptr], ptr %84, i64 0, i64 %86
  %88 = load ptr, ptr %87, align 8, !tbaa !11
  %89 = load ptr, ptr %6, align 8, !tbaa !60
  %90 = getelementptr inbounds nuw %struct.oggvorbis_private, ptr %89, i32 0, i32 0
  %91 = load i32, ptr %8, align 4, !tbaa !13
  %92 = sext i32 %91 to i64
  %93 = getelementptr inbounds [3 x i32], ptr %90, i64 0, i64 %92
  %94 = load i32, ptr %93, align 4, !tbaa !13
  %95 = zext i32 %94 to i64
  call void @llvm.memcpy.p0.p0.i64(ptr align 1 %82, ptr align 1 %88, i64 %95, i1 false)
  %96 = load ptr, ptr %6, align 8, !tbaa !60
  %97 = getelementptr inbounds nuw %struct.oggvorbis_private, ptr %96, i32 0, i32 0
  %98 = load i32, ptr %8, align 4, !tbaa !13
  %99 = sext i32 %98 to i64
  %100 = getelementptr inbounds [3 x i32], ptr %97, i64 0, i64 %99
  %101 = load i32, ptr %100, align 4, !tbaa !13
  %102 = load i32, ptr %9, align 4, !tbaa !13
  %103 = add i32 %102, %101
  store i32 %103, ptr %9, align 4, !tbaa !13
  %104 = load ptr, ptr %6, align 8, !tbaa !60
  %105 = getelementptr inbounds nuw %struct.oggvorbis_private, ptr %104, i32 0, i32 1
  %106 = load i32, ptr %8, align 4, !tbaa !13
  %107 = sext i32 %106 to i64
  %108 = getelementptr inbounds [3 x ptr], ptr %105, i64 0, i64 %107
  call void @av_freep(ptr noundef %108)
  br label %109

109:                                              ; preds = %78
  %110 = load i32, ptr %8, align 4, !tbaa !13
  %111 = add nsw i32 %110, 1
  store i32 %111, ptr %8, align 4, !tbaa !13
  br label %75, !llvm.loop !104

112:                                              ; preds = %75
  %113 = load ptr, ptr %7, align 8, !tbaa !30
  %114 = load i32, ptr %9, align 4, !tbaa !13
  %115 = add nsw i32 %114, 64
  %116 = sext i32 %115 to i64
  %117 = call i32 @av_reallocp(ptr noundef %113, i64 noundef %116)
  store i32 %117, ptr %11, align 4, !tbaa !13
  %118 = icmp slt i32 %117, 0
  br i1 %118, label %119, label %121

119:                                              ; preds = %112
  %120 = load i32, ptr %11, align 4, !tbaa !13
  store i32 %120, ptr %4, align 4
  store i32 1, ptr %14, align 4
  br label %123

121:                                              ; preds = %112
  %122 = load i32, ptr %9, align 4, !tbaa !13
  store i32 %122, ptr %4, align 4
  store i32 1, ptr %14, align 4
  br label %123

123:                                              ; preds = %121, %119, %45, %37
  call void @llvm.lifetime.end.p0(i64 8, ptr %13) #8
  call void @llvm.lifetime.end.p0(i64 4, ptr %12) #8
  call void @llvm.lifetime.end.p0(i64 4, ptr %11) #8
  call void @llvm.lifetime.end.p0(i64 4, ptr %10) #8
  call void @llvm.lifetime.end.p0(i64 4, ptr %9) #8
  call void @llvm.lifetime.end.p0(i64 4, ptr %8) #8
  %124 = load i32, ptr %4, align 4
  ret i32 %124
}