; Function Attrs: nounwind uwtable
define internal fastcc i32 @fixup_vorbis_headers(ptr noundef %0, ptr noundef %1) unnamed_addr #0 {
  %3 = getelementptr inbounds nuw i8, ptr %0, i64 4
  %4 = load ptr, ptr %1, align 8, !tbaa !20
  %.not = icmp eq ptr %4, null
  br i1 %.not, label %5, label %43

5:                                                ; preds = %2
  %6 = load i32, ptr %0, align 8, !tbaa !21
  %7 = load i32, ptr %3, align 4, !tbaa !21
  %8 = add i32 %7, %6
  %9 = getelementptr inbounds nuw i8, ptr %0, i64 8
  %10 = load i32, ptr %9, align 8, !tbaa !21
  %11 = add i32 %8, %10
  %12 = sdiv i32 %11, 255
  %13 = add i32 %11, 64
  %14 = add i32 %13, %12
  %15 = sext i32 %14 to i64
  %16 = tail call ptr @av_realloc(ptr noundef null, i64 noundef %15) #9
  store ptr %16, ptr %1, align 8, !tbaa !20
  %.not41 = icmp eq ptr %16, null
  br i1 %.not41, label %43, label %17

17:                                               ; preds = %5
  tail call void @llvm.memset.p0.i64(ptr nonnull align 1 %16, i8 0, i64 %15, i1 false)
  store i8 2, ptr %16, align 1, !tbaa !19
  %18 = getelementptr inbounds nuw i8, ptr %16, i64 1
  %19 = load i32, ptr %0, align 8, !tbaa !21
  %20 = tail call i32 @av_xiphlacing(ptr noundef nonnull %18, i32 noundef %19) #9
  %21 = add i32 %20, 1
  %22 = sext i32 %21 to i64
  %23 = getelementptr inbounds i8, ptr %16, i64 %22
  %24 = load i32, ptr %3, align 4, !tbaa !21
  %25 = tail call i32 @av_xiphlacing(ptr noundef nonnull %23, i32 noundef %24) #9
  %26 = add i32 %25, %21
  %27 = getelementptr inbounds nuw i8, ptr %0, i64 16
  br label %28

28:                                               ; preds = %17, %28
  %indvars.iv = phi i64 [ 0, %17 ], [ %indvars.iv.next, %28 ]
  %.0381 = phi i32 [ %26, %17 ], [ %37, %28 ]
  %29 = sext i32 %.0381 to i64
  %30 = getelementptr inbounds i8, ptr %16, i64 %29
  %31 = getelementptr inbounds nuw [3 x ptr], ptr %27, i64 0, i64 %indvars.iv
  %32 = load ptr, ptr %31, align 8, !tbaa !20
  %33 = getelementptr inbounds nuw [3 x i32], ptr %0, i64 0, i64 %indvars.iv
  %34 = load i32, ptr %33, align 4, !tbaa !21
  %35 = zext i32 %34 to i64
  tail call void @llvm.memcpy.p0.p0.i64(ptr nonnull align 1 %30, ptr align 1 %32, i64 %35, i1 false)
  %36 = load i32, ptr %33, align 4, !tbaa !21
  %37 = add i32 %36, %.0381
  tail call void @av_freep(ptr noundef nonnull %31) #9
  %indvars.iv.next = add nuw nsw i64 %indvars.iv, 1
  %exitcond.not = icmp eq i64 %indvars.iv.next, 3
  br i1 %exitcond.not, label %38, label %28, !llvm.loop !88

38:                                               ; preds = %28
  %39 = add nsw i32 %37, 64
  %40 = sext i32 %39 to i64
  %41 = tail call i32 @av_reallocp(ptr noundef nonnull %1, i64 noundef %40) #9
  %42 = icmp slt i32 %41, 0
  %..038 = select i1 %42, i32 %41, i32 %37
  br label %43

43:                                               ; preds = %38, %5, %2
  %.0 = phi i32 [ -1094995529, %2 ], [ -12, %5 ], [ %..038, %38 ]
  ret i32 %.0
}